target datalayout = "e-m:e-p270:32:32-p271:32:32-p272:64:64-i64:64-i128:128-f80:128-n8:16:32:64-S128"
target triple = "x86_64-pc-linux-gnu"

%class.mpfx_manager = type <{ i32, i32, i32, [4 x i8], %class.svector, i32, i8, [3 x i8], %class.id_gen, %class.svector, %class.svector, %class.svector, %class.svector, %class.mpfx, [4 x i8] }>
%class.id_gen = type { i32, %class.svector }
%class.svector = type { %class.vector }
%class.vector = type { ptr }
%class.mpfx = type { i32 }

@_ZTIN12mpfx_manager18overflow_exceptionE = linkonce_odr hidden constant { ptr, ptr, ptr } { ptr getelementptr inbounds (ptr, ptr @_ZTVN10__cxxabiv120__si_class_type_infoE, i64 2), ptr @_ZTSN12mpfx_manager18overflow_exceptionE, ptr @_ZTIN12mpfx_manager9exceptionE }, comdat, align 8
@_ZTV12z3_exception = external unnamed_addr constant { [6 x ptr] }, align 8
@_ZTVSt9exception = available_externally unnamed_addr constant { [5 x ptr] } { [5 x ptr] [ptr null, ptr @_ZTISt9exception, ptr @_ZNSt9exceptionD1Ev, ptr @_ZNSt9exceptionD0Ev, ptr @_ZNKSt9exception4whatEv] }, align 8

; Function Attrs: mustprogress uwtable
define linkonce_odr hidden noundef nonnull align 8 dereferenceable(8) ptr @_ZN6vectorIjLb0EjE9push_backERKj(ptr noundef nonnull align 8 dereferenceable(8) %0, ptr noundef nonnull align 4 dereferenceable(4) %1) #4 comdat align 2 {
  %3 = alloca ptr, align 8
  %4 = alloca ptr, align 8
  store ptr %0, ptr %3, align 8, !tbaa !30
  store ptr %1, ptr %4, align 8, !tbaa !35
  %5 = load ptr, ptr %3, align 8
  %6 = getelementptr inbounds nuw %class.vector, ptr %5, i32 0, i32 0
  %7 = load ptr, ptr %6, align 8, !tbaa !34
  %8 = icmp eq ptr %7, null
  br i1 %8, label %19, label %9

9:                                                ; preds = %2
  %10 = getelementptr inbounds nuw %class.vector, ptr %5, i32 0, i32 0
  %11 = load ptr, ptr %10, align 8, !tbaa !34
  %12 = getelementptr inbounds i32, ptr %11, i64 -1
  %13 = load i32, ptr %12, align 4, !tbaa !8
  %14 = getelementptr inbounds nuw %class.vector, ptr %5, i32 0, i32 0
  %15 = load ptr, ptr %14, align 8, !tbaa !34
  %16 = getelementptr inbounds i32, ptr %15, i64 -2
  %17 = load i32, ptr %16, align 4, !tbaa !8
  %18 = icmp eq i32 %13, %17
  br i1 %18, label %19, label %20

19:                                               ; preds = %9, %2
  call void @_ZN6vectorIjLb0EjE13expand_vectorEv(ptr noundef nonnull align 8 dereferenceable(8) %5)
  br label %20

20:                                               ; preds = %19, %9
  %21 = getelementptr inbounds nuw %class.vector, ptr %5, i32 0, i32 0
  %22 = load ptr, ptr %21, align 8, !tbaa !34
  %23 = getelementptr inbounds nuw %class.vector, ptr %5, i32 0, i32 0
  %24 = load ptr, ptr %23, align 8, !tbaa !34
  %25 = getelementptr inbounds i32, ptr %24, i64 -1
  %26 = load i32, ptr %25, align 4, !tbaa !8
  %27 = zext i32 %26 to i64
  %28 = getelementptr inbounds nuw i32, ptr %22, i64 %27
  %29 = load ptr, ptr %4, align 8, !tbaa !35
  %30 = load i32, ptr %29, align 4, !tbaa !8
  store i32 %30, ptr %28, align 4, !tbaa !8
  %31 = getelementptr inbounds nuw %class.vector, ptr %5, i32 0, i32 0
  %32 = load ptr, ptr %31, align 8, !tbaa !34
  %33 = getelementptr inbounds i32, ptr %32, i64 -1
  %34 = load i32, ptr %33, align 4, !tbaa !8
  %35 = add i32 %34, 1
  store i32 %35, ptr %33, align 4, !tbaa !8
  ret ptr %5
}

; Function Attrs: mustprogress nounwind uwtable
define linkonce_odr hidden void @_ZNSt9exceptionC2Ev(ptr noundef nonnull align 8 dereferenceable(8) %0) unnamed_addr #5 comdat align 2 {
  %2 = alloca ptr, align 8
  store ptr %0, ptr %2, align 8, !tbaa !144
  %3 = load ptr, ptr %2, align 8
  store ptr getelementptr inbounds inrange(-16, 24) ({ [5 x ptr] }, ptr @_ZTVSt9exception, i32 0, i32 0, i32 2), ptr %3, align 8, !tbaa !48
  ret void
}

; Function Attrs: mustprogress uwtable
define linkonce_odr hidden void @_ZN6id_gen7recycleEj(ptr noundef nonnull align 8 dereferenceable(16) %0, i32 noundef %1) #4 comdat align 2 {
  %3 = alloca ptr, align 8
  %4 = alloca i32, align 4
  store ptr %0, ptr %3, align 8, !tbaa !25
  store i32 %1, ptr %4, align 4, !tbaa !8
  %5 = load ptr, ptr %3, align 8
  %6 = call noundef zeroext i1 @_ZN6memory16is_out_of_memoryEv()
  br i1 %6, label %7, label %8

7:                                                ; preds = %2
  br label %11

8:                                                ; preds = %2
  %9 = getelementptr inbounds nuw %class.id_gen, ptr %5, i32 0, i32 1
  %10 = call noundef nonnull align 8 dereferenceable(8) ptr @_ZN6vectorIjLb0EjE9push_backERKj(ptr noundef nonnull align 8 dereferenceable(8) %9, ptr noundef nonnull align 4 dereferenceable(4) %4)
  br label %11

11:                                               ; preds = %8, %7
  ret void
}

; Function Attrs: inlinehint mustprogress nounwind uwtable
define linkonce_odr hidden void @_ZN12z3_exceptionC2Ev(ptr noundef nonnull align 8 dereferenceable(8) %0) unnamed_addr #6 comdat align 2 {
  %2 = alloca ptr, align 8
  store ptr %0, ptr %2, align 8, !tbaa !142
  %3 = load ptr, ptr %2, align 8
  call void @_ZNSt9exceptionC2Ev(ptr noundef nonnull align 8 dereferenceable(8) %3) #3
  store ptr getelementptr inbounds inrange(-16, 32) ({ [6 x ptr] }, ptr @_ZTV12z3_exception, i32 0, i32 0, i32 2), ptr %3, align 8, !tbaa !48
  ret void
}

; Function Attrs: mustprogress uwtable
define hidden void @_ZN12mpfx_manager3delER4mpfx(ptr noundef nonnull align 8 dereferenceable(85) %0, ptr noundef nonnull align 4 dereferenceable(4) %1) #4 align 2 {
  %3 = alloca ptr, align 8
  %4 = alloca ptr, align 8
  %5 = alloca i32, align 4
  %6 = alloca ptr, align 8
  %7 = alloca i32, align 4
  store ptr %0, ptr %3, align 8, !tbaa !3
  store ptr %1, ptr %4, align 8, !tbaa !28
  %8 = load ptr, ptr %3, align 8
  call void @llvm.lifetime.start.p0(i64 4, ptr %5) #3
  %9 = load ptr, ptr %4, align 8, !tbaa !28
  %10 = load i32, ptr %9, align 4
  %11 = lshr i32 %10, 1
  store i32 %11, ptr %5, align 4, !tbaa !8
  %12 = load i32, ptr %5, align 4, !tbaa !8
  %13 = icmp ne i32 %12, 0
  br i1 %13, label %14, label %34

14:                                               ; preds = %2
  %15 = getelementptr inbounds nuw %class.mpfx_manager, ptr %8, i32 0, i32 8
  %16 = load i32, ptr %5, align 4, !tbaa !8
  call void @_ZN6id_gen7recycleEj(ptr noundef nonnull align 8 dereferenceable(16) %15, i32 noundef %16)
  call void @llvm.lifetime.start.p0(i64 8, ptr %6) #3
  %17 = load ptr, ptr %4, align 8, !tbaa !28
  %18 = call noundef ptr @_ZNK12mpfx_manager5wordsERK4mpfx(ptr noundef nonnull align 8 dereferenceable(85) %8, ptr noundef nonnull align 4 dereferenceable(4) %17)
  store ptr %18, ptr %6, align 8, !tbaa !35
  call void @llvm.lifetime.start.p0(i64 4, ptr %7) #3
  store i32 0, ptr %7, align 4, !tbaa !8
  br label %19

19:                                               ; preds = %30, %14
  %20 = load i32, ptr %7, align 4, !tbaa !8
  %21 = getelementptr inbounds nuw %class.mpfx_manager, ptr %8, i32 0, i32 2
  %22 = load i32, ptr %21, align 8, !tbaa !20
  %23 = icmp ult i32 %20, %22
  br i1 %23, label %25, label %24

24:                                               ; preds = %19
  call void @llvm.lifetime.end.p0(i64 4, ptr %7) #3
  br label %33

25:                                               ; preds = %19
  %26 = load ptr, ptr %6, align 8, !tbaa !35
  %27 = load i32, ptr %7, align 4, !tbaa !8
  %28 = zext i32 %27 to i64
  %29 = getelementptr inbounds nuw i32, ptr %26, i64 %28
  store i32 0, ptr %29, align 4, !tbaa !8
  br label %30

30:                                               ; preds = %25
  %31 = load i32, ptr %7, align 4, !tbaa !8
  %32 = add i32 %31, 1
  store i32 %32, ptr %7, align 4, !tbaa !8
  br label %19, !llvm.loop !37

33:                                               ; preds = %24
  call void @llvm.lifetime.end.p0(i64 8, ptr %6) #3
  br label %34

34:                                               ; preds = %33, %2
  call void @llvm.lifetime.end.p0(i64 4, ptr %5) #3
  ret void
}

; Function Attrs: inlinehint mustprogress nounwind uwtable
define linkonce_odr hidden void @_ZN12mpfx_manager9exceptionC2Ev(ptr noundef nonnull align 8 dereferenceable(8) %0) unnamed_addr #6 comdat align 2 {
  %2 = alloca ptr, align 8
  store ptr %0, ptr %2, align 8, !tbaa !146
  %3 = load ptr, ptr %2, align 8
  call void @_ZN12z3_exceptionC2Ev(ptr noundef nonnull align 8 dereferenceable(8) %3) #3
  store ptr getelementptr inbounds inrange(-16, 32) ({ [6 x ptr] }, ptr @_ZTVN12mpfx_manager9exceptionE, i32 0, i32 0, i32 2), ptr %3, align 8, !tbaa !48
  ret void
}

; Function Attrs: mustprogress nounwind uwtable
define linkonce_odr hidden noundef zeroext i1 @_ZN12mpfx_manager7is_zeroERK4mpfx(ptr noundef nonnull align 4 dereferenceable(4) %0) #5 comdat align 2 {
  %2 = alloca ptr, align 8
  store ptr %0, ptr %2, align 8, !tbaa !28
  %3 = load ptr, ptr %2, align 8, !tbaa !28
  %4 = load i32, ptr %3, align 4
  %5 = lshr i32 %4, 1
  %6 = icmp eq i32 %5, 0
  ret i1 %6
}

; Function Attrs: mustprogress nounwind uwtable
define linkonce_odr hidden noundef ptr @_ZNK6vectorIjLb0EjE4dataEv(ptr noundef nonnull align 8 dereferenceable(8) %0) #5 comdat align 2 {
  %2 = alloca ptr, align 8
  store ptr %0, ptr %2, align 8, !tbaa !30
  %3 = load ptr, ptr %2, align 8
  %4 = getelementptr inbounds nuw %class.vector, ptr %3, i32 0, i32 0
  %5 = load ptr, ptr %4, align 8, !tbaa !34
  ret ptr %5
}

; Function Attrs: mustprogress uwtable
define hidden void @_ZN12mpfx_manager5resetER4mpfx(ptr noundef nonnull align 8 dereferenceable(85) %0, ptr noundef nonnull align 4 dereferenceable(4) %1) #4 align 2 {
  %3 = alloca ptr, align 8
  %4 = alloca ptr, align 8
  store ptr %0, ptr %3, align 8, !tbaa !3
  store ptr %1, ptr %4, align 8, !tbaa !28
  %5 = load ptr, ptr %3, align 8
  %6 = load ptr, ptr %4, align 8, !tbaa !28
  call void @_ZN12mpfx_manager3delER4mpfx(ptr noundef nonnull align 8 dereferenceable(85) %5, ptr noundef nonnull align 4 dereferenceable(4) %6)
  %7 = load ptr, ptr %4, align 8, !tbaa !28
  %8 = load i32, ptr %7, align 4
  %9 = and i32 %8, -2
  %10 = or i32 %9, 0
  store i32 %10, ptr %7, align 4
  %11 = load ptr, ptr %4, align 8, !tbaa !28
  %12 = load i32, ptr %11, align 4
  %13 = and i32 %12, 1
  %14 = or i32 %13, 0
  store i32 %14, ptr %11, align 4
  ret void
}

; Function Attrs: inlinehint mustprogress nounwind uwtable
define linkonce_odr hidden void @_ZN12mpfx_manager18overflow_exceptionC2Ev(ptr noundef nonnull align 8 dereferenceable(8) %0) unnamed_addr #6 comdat align 2 {
  %2 = alloca ptr, align 8
  store ptr %0, ptr %2, align 8, !tbaa !46
  %3 = load ptr, ptr %2, align 8
  call void @_ZN12mpfx_manager9exceptionC2Ev(ptr noundef nonnull align 8 dereferenceable(8) %3) #3
  store ptr getelementptr inbounds inrange(-16, 32) ({ [6 x ptr] }, ptr @_ZTVN12mpfx_manager18overflow_exceptionE, i32 0, i32 0, i32 2), ptr %3, align 8, !tbaa !48
  ret void
}

; Function Attrs: mustprogress nounwind uwtable
define linkonce_odr hidden noundef zeroext i1 @_ZN12mpfx_manager6is_posERK4mpfx(ptr noundef nonnull align 4 dereferenceable(4) %0) #5 comdat align 2 {
  %2 = alloca ptr, align 8
  store ptr %0, ptr %2, align 8, !tbaa !28
  %3 = load ptr, ptr %2, align 8, !tbaa !28
  %4 = load i32, ptr %3, align 4
  %5 = and i32 %4, 1
  %6 = icmp eq i32 %5, 0
  br i1 %6, label %7, label %11

7:                                                ; preds = %1
  %8 = load ptr, ptr %2, align 8, !tbaa !28
  %9 = call noundef zeroext i1 @_ZN12mpfx_manager7is_zeroERK4mpfx(ptr noundef nonnull align 4 dereferenceable(4) %8)
  %10 = xor i1 %9, true
  br label %11

11:                                               ; preds = %7, %1
  %12 = phi i1 [ false, %1 ], [ %10, %7 ]
  ret i1 %12
}

; Function Attrs: mustprogress uwtable
define linkonce_odr hidden noundef ptr @_ZNK12mpfx_manager5wordsERK4mpfx(ptr noundef nonnull align 8 dereferenceable(85) %0, ptr noundef nonnull align 4 dereferenceable(4) %1) #4 comdat align 2 {
  %3 = alloca ptr, align 8
  %4 = alloca ptr, align 8
  store ptr %0, ptr %3, align 8, !tbaa !3
  store ptr %1, ptr %4, align 8, !tbaa !28
  %5 = load ptr, ptr %3, align 8
  %6 = getelementptr inbounds nuw %class.mpfx_manager, ptr %5, i32 0, i32 4
  %7 = call noundef ptr @_ZNK6vectorIjLb0EjE4dataEv(ptr noundef nonnull align 8 dereferenceable(8) %6)
  %8 = load ptr, ptr %4, align 8, !tbaa !28
  %9 = load i32, ptr %8, align 4
  %10 = lshr i32 %9, 1
  %11 = getelementptr inbounds nuw %class.mpfx_manager, ptr %5, i32 0, i32 2
  %12 = load i32, ptr %11, align 8, !tbaa !20
  %13 = mul i32 %10, %12
  %14 = zext i32 %13 to i64
  %15 = getelementptr inbounds nuw i32, ptr %7, i64 %14
  ret ptr %15
}

; Function Attrs: mustprogress uwtable
define hidden void @_ZN12mpfx_manager4ceilER4mpfx(ptr noundef nonnull align 8 dereferenceable(85) %0, ptr noundef nonnull align 4 dereferenceable(4) %1) #4 align 2 {
  %3 = alloca ptr, align 8
  %4 = alloca ptr, align 8
  %5 = alloca ptr, align 8
  %6 = alloca i8, align 1
  %7 = alloca i32, align 4
  %8 = alloca i32, align 4
  store ptr %0, ptr %3, align 8, !tbaa !3
  store ptr %1, ptr %4, align 8, !tbaa !28
  %9 = load ptr, ptr %3, align 8
  call void @llvm.lifetime.start.p0(i64 8, ptr %5) #3
  %10 = load ptr, ptr %4, align 8, !tbaa !28
  %11 = call noundef ptr @_ZNK12mpfx_manager5wordsERK4mpfx(ptr noundef nonnull align 8 dereferenceable(85) %9, ptr noundef nonnull align 4 dereferenceable(4) %10)
  store ptr %11, ptr %5, align 8, !tbaa !35
  %12 = load ptr, ptr %4, align 8, !tbaa !28
  %13 = call noundef zeroext i1 @_ZN12mpfx_manager6is_posERK4mpfx(ptr noundef nonnull align 4 dereferenceable(4) %12)
  br i1 %13, label %14, label %52

14:                                               ; preds = %2
  call void @llvm.lifetime.start.p0(i64 1, ptr %6) #3
  store i8 1, ptr %6, align 1, !tbaa !60
  call void @llvm.lifetime.start.p0(i64 4, ptr %7) #3
  store i32 0, ptr %7, align 4, !tbaa !8
  br label %15

15:                                               ; preds = %34, %14
  %16 = load i32, ptr %7, align 4, !tbaa !8
  %17 = getelementptr inbounds nuw %class.mpfx_manager, ptr %9, i32 0, i32 1
  %18 = load i32, ptr %17, align 4, !tbaa !19
  %19 = icmp ult i32 %16, %18
  br i1 %19, label %21, label %20

20:                                               ; preds = %15
  call void @llvm.lifetime.end.p0(i64 4, ptr %7) #3
  br label %37

21:                                               ; preds = %15
  %22 = load ptr, ptr %5, align 8, !tbaa !35
  %23 = load i32, ptr %7, align 4, !tbaa !8
  %24 = zext i32 %23 to i64
  %25 = getelementptr inbounds nuw i32, ptr %22, i64 %24
  %26 = load i32, ptr %25, align 4, !tbaa !8
  %27 = icmp ne i32 %26, 0
  br i1 %27, label %28, label %33

28:                                               ; preds = %21
  store i8 0, ptr %6, align 1, !tbaa !60
  %29 = load ptr, ptr %5, align 8, !tbaa !35
  %30 = load i32, ptr %7, align 4, !tbaa !8
  %31 = zext i32 %30 to i64
  %32 = getelementptr inbounds nuw i32, ptr %29, i64 %31
  store i32 0, ptr %32, align 4, !tbaa !8
  br label %33

33:                                               ; preds = %28, %21
  br label %34

34:                                               ; preds = %33
  %35 = load i32, ptr %7, align 4, !tbaa !8
  %36 = add i32 %35, 1
  store i32 %36, ptr %7, align 4, !tbaa !8
  br label %15, !llvm.loop !88

37:                                               ; preds = %20
  %38 = load i8, ptr %6, align 1, !tbaa !60, !range !57, !noundef !58
  %39 = trunc i8 %38 to i1
  br i1 %39, label %51, label %40

40:                                               ; preds = %37
  %41 = getelementptr inbounds nuw %class.mpfx_manager, ptr %9, i32 0, i32 0
  %42 = load i32, ptr %41, align 8, !tbaa !10
  %43 = load ptr, ptr %5, align 8, !tbaa !35
  %44 = getelementptr inbounds nuw %class.mpfx_manager, ptr %9, i32 0, i32 1
  %45 = load i32, ptr %44, align 4, !tbaa !19
  %46 = zext i32 %45 to i64
  %47 = getelementptr inbounds nuw i32, ptr %43, i64 %46
  %48 = call noundef zeroext i1 @_Z3incjPj(i32 noundef %42, ptr noundef %47)
  br i1 %48, label %51, label %49

49:                                               ; preds = %40
  %50 = call ptr @__cxa_allocate_exception(i64 8) #3
  call void @llvm.memset.p0.i64(ptr align 16 %50, i8 0, i64 8, i1 false)
  call void @_ZN12mpfx_manager18overflow_exceptionC2Ev(ptr noundef nonnull align 8 dereferenceable(8) %50) #3
  call void @__cxa_throw(ptr %50, ptr @_ZTIN12mpfx_manager18overflow_exceptionE, ptr @_ZNSt9exceptionD2Ev) #19
  unreachable

51:                                               ; preds = %40, %37
  call void @llvm.lifetime.end.p0(i64 1, ptr %6) #3
  br label %68

52:                                               ; preds = %2
  call void @llvm.lifetime.start.p0(i64 4, ptr %8) #3
  store i32 0, ptr %8, align 4, !tbaa !8
  br label %53

53:                                               ; preds = %64, %52
  %54 = load i32, ptr %8, align 4, !tbaa !8
  %55 = getelementptr inbounds nuw %class.mpfx_manager, ptr %9, i32 0, i32 1
  %56 = load i32, ptr %55, align 4, !tbaa !19
  %57 = icmp ult i32 %54, %56
  br i1 %57, label %59, label %58

58:                                               ; preds = %53
  call void @llvm.lifetime.end.p0(i64 4, ptr %8) #3
  br label %67

59:                                               ; preds = %53
  %60 = load ptr, ptr %5, align 8, !tbaa !35
  %61 = load i32, ptr %8, align 4, !tbaa !8
  %62 = zext i32 %61 to i64
  %63 = getelementptr inbounds nuw i32, ptr %60, i64 %62
  store i32 0, ptr %63, align 4, !tbaa !8
  br label %64

64:                                               ; preds = %59
  %65 = load i32, ptr %8, align 4, !tbaa !8
  %66 = add i32 %65, 1
  store i32 %66, ptr %8, align 4, !tbaa !8
  br label %53, !llvm.loop !89

67:                                               ; preds = %58
  br label %68

68:                                               ; preds = %67, %51
  %69 = getelementptr inbounds nuw %class.mpfx_manager, ptr %9, i32 0, i32 0
  %70 = load i32, ptr %69, align 8, !tbaa !10
  %71 = load ptr, ptr %5, align 8, !tbaa !35
  %72 = getelementptr inbounds nuw %class.mpfx_manager, ptr %9, i32 0, i32 1
  %73 = load i32, ptr %72, align 4, !tbaa !19
  %74 = zext i32 %73 to i64
  %75 = getelementptr inbounds nuw i32, ptr %71, i64 %74
  %76 = call noundef zeroext i1 @_Z7is_zerojPKj(i32 noundef %70, ptr noundef %75)
  br i1 %76, label %77, label %79

77:                                               ; preds = %68
  %78 = load ptr, ptr %4, align 8, !tbaa !28
  call void @_ZN12mpfx_manager5resetER4mpfx(ptr noundef nonnull align 8 dereferenceable(85) %9, ptr noundef nonnull align 4 dereferenceable(4) %78)
  br label %79

79:                                               ; preds = %77, %68
  call void @llvm.lifetime.end.p0(i64 8, ptr %5) #3
  ret void
}