; Function Attrs: mustprogress uwtable
define hidden void @_ZN12mpfx_manager4ceilER4mpfx(ptr noundef nonnull align 8 dereferenceable(85) %0, ptr noundef nonnull align 4 captures(none) dereferenceable(4) %1) local_unnamed_addr #3 align 2 {
  %3 = getelementptr inbounds nuw i8, ptr %0, i64 16
  %4 = load ptr, ptr %3, align 8, !tbaa !3
  %5 = load i32, ptr %1, align 4
  %6 = lshr i32 %5, 1
  %7 = getelementptr inbounds nuw i8, ptr %0, i64 8
  %8 = load i32, ptr %7, align 8, !tbaa !19
  %9 = mul i32 %6, %8
  %10 = zext i32 %9 to i64
  %11 = getelementptr inbounds nuw i32, ptr %4, i64 %10
  %12 = and i32 %5, 1
  %13 = icmp eq i32 %12, 0
  %14 = icmp ugt i32 %5, 1
  %15 = and i1 %14, %13
  %16 = getelementptr inbounds nuw i8, ptr %0, i64 4
  %17 = load i32, ptr %16, align 4, !tbaa !18
  %.not26 = icmp eq i32 %17, 0
  br i1 %15, label %.preheader, label %.preheader19

.preheader19:                                     ; preds = %2
  br i1 %.not26, label %.loopexit, label %.lr.ph

.preheader:                                       ; preds = %2
  br i1 %.not26, label %.loopexit, label %.lr.ph23

._crit_edge:                                      ; preds = %22
  br i1 %.1, label %.loopexit, label %26

.lr.ph23:                                         ; preds = %.preheader, %22
  %18 = phi i32 [ %23, %22 ], [ %17, %.preheader ]
  %indvars.iv29 = phi i64 [ %indvars.iv.next30, %22 ], [ 0, %.preheader ]
  %.01721 = phi i1 [ %.1, %22 ], [ true, %.preheader ]
  %19 = getelementptr inbounds nuw i32, ptr %11, i64 %indvars.iv29
  %20 = load i32, ptr %19, align 4, !tbaa !22
  %.not = icmp eq i32 %20, 0
  br i1 %.not, label %22, label %21

21:                                               ; preds = %.lr.ph23
  store i32 0, ptr %19, align 4, !tbaa !22
  %.pre = load i32, ptr %16, align 4, !tbaa !18
  br label %22

22:                                               ; preds = %.lr.ph23, %21
  %23 = phi i32 [ %.pre, %21 ], [ %18, %.lr.ph23 ]
  %.1 = phi i1 [ false, %21 ], [ %.01721, %.lr.ph23 ]
  %indvars.iv.next30 = add nuw nsw i64 %indvars.iv29, 1
  %24 = zext i32 %23 to i64
  %25 = icmp samesign ult i64 %indvars.iv.next30, %24
  br i1 %25, label %.lr.ph23, label %._crit_edge, !llvm.loop !75

26:                                               ; preds = %._crit_edge
  %27 = load i32, ptr %0, align 8, !tbaa !13
  %28 = zext i32 %23 to i64
  %29 = getelementptr inbounds nuw i32, ptr %11, i64 %28
  %30 = tail call noundef zeroext i1 @_Z3incjPj(i32 noundef %27, ptr noundef %29)
  br i1 %30, label %..loopexit_crit_edge, label %31

..loopexit_crit_edge:                             ; preds = %26
  %.pre31 = load i32, ptr %16, align 4, !tbaa !18
  br label %.loopexit

31:                                               ; preds = %26
  %32 = tail call ptr @__cxa_allocate_exception(i64 8) #24
  store ptr getelementptr inbounds nuw inrange(-16, 32) (i8, ptr @_ZTVN12mpfx_manager18overflow_exceptionE, i64 16), ptr %32, align 8, !tbaa !27
  tail call void @__cxa_throw(ptr nonnull %32, ptr nonnull @_ZTIN12mpfx_manager18overflow_exceptionE, ptr nonnull @_ZNSt9exceptionD2Ev) #26
  unreachable

.lr.ph:                                           ; preds = %.preheader19, %.lr.ph
  %indvars.iv = phi i64 [ %indvars.iv.next, %.lr.ph ], [ 0, %.preheader19 ]
  %33 = getelementptr inbounds nuw i32, ptr %11, i64 %indvars.iv
  store i32 0, ptr %33, align 4, !tbaa !22
  %indvars.iv.next = add nuw nsw i64 %indvars.iv, 1
  %34 = load i32, ptr %16, align 4, !tbaa !18
  %35 = zext i32 %34 to i64
  %36 = icmp samesign ult i64 %indvars.iv.next, %35
  br i1 %36, label %.lr.ph, label %.loopexit, !llvm.loop !76

.loopexit:                                        ; preds = %.lr.ph, %.preheader, %..loopexit_crit_edge, %.preheader19, %._crit_edge
  %37 = phi i32 [ %.pre31, %..loopexit_crit_edge ], [ 0, %.preheader19 ], [ %23, %._crit_edge ], [ 0, %.preheader ], [ %34, %.lr.ph ]
  %38 = load i32, ptr %0, align 8, !tbaa !13
  %39 = zext i32 %37 to i64
  %40 = getelementptr inbounds nuw i32, ptr %11, i64 %39
  %41 = tail call noundef zeroext i1 @_Z7is_zerojPKj(i32 noundef %38, ptr noundef %40)
  br i1 %41, label %42, label %75

42:                                               ; preds = %.loopexit
  %43 = load i32, ptr %1, align 4
  %.not.i.i = icmp ult i32 %43, 2
  br i1 %.not.i.i, label %_ZN12mpfx_manager5resetER4mpfx.exit, label %44

44:                                               ; preds = %42
  %45 = lshr i32 %43, 1
  %46 = tail call noundef zeroext i1 @_ZN6memory16is_out_of_memoryEv()
  br i1 %46, label %_ZN6id_gen7recycleEj.exit.i.i, label %47

47:                                               ; preds = %44
  %48 = getelementptr inbounds nuw i8, ptr %0, i64 40
  %49 = load ptr, ptr %48, align 8, !tbaa !3
  %50 = icmp eq ptr %49, null
  br i1 %50, label %57, label %51

51:                                               ; preds = %47
  %52 = getelementptr inbounds i8, ptr %49, i64 -4
  %53 = load i32, ptr %52, align 4, !tbaa !22
  %54 = getelementptr inbounds i8, ptr %49, i64 -8
  %55 = load i32, ptr %54, align 4, !tbaa !22
  %56 = icmp eq i32 %53, %55
  br i1 %56, label %57, label %_ZN6vectorIjLb0EjE9push_backERKj.exit.i.i.i

57:                                               ; preds = %51, %47
  tail call void @_ZN6vectorIjLb0EjE13expand_vectorEv(ptr noundef nonnull align 8 dereferenceable(8) %48)
  %.pre.i.i.i.i = load ptr, ptr %48, align 8, !tbaa !3
  %.phi.trans.insert.i.i.i.i = getelementptr inbounds i8, ptr %.pre.i.i.i.i, i64 -4
  %.pre2.i.i.i.i = load i32, ptr %.phi.trans.insert.i.i.i.i, align 4, !tbaa !22
  br label %_ZN6vectorIjLb0EjE9push_backERKj.exit.i.i.i

_ZN6vectorIjLb0EjE9push_backERKj.exit.i.i.i:      ; preds = %57, %51
  %58 = phi i32 [ %.pre2.i.i.i.i, %57 ], [ %53, %51 ]
  %59 = phi ptr [ %.pre.i.i.i.i, %57 ], [ %49, %51 ]
  %60 = getelementptr inbounds i8, ptr %59, i64 -4
  %61 = zext i32 %58 to i64
  %62 = getelementptr inbounds nuw i32, ptr %59, i64 %61
  store i32 %45, ptr %62, align 4, !tbaa !22
  %63 = add i32 %58, 1
  store i32 %63, ptr %60, align 4, !tbaa !22
  br label %_ZN6id_gen7recycleEj.exit.i.i

_ZN6id_gen7recycleEj.exit.i.i:                    ; preds = %_ZN6vectorIjLb0EjE9push_backERKj.exit.i.i.i, %44
  %64 = load ptr, ptr %3, align 8, !tbaa !3
  %65 = load i32, ptr %1, align 4
  %66 = lshr i32 %65, 1
  %67 = load i32, ptr %7, align 8, !tbaa !19
  %68 = mul i32 %66, %67
  %69 = zext i32 %68 to i64
  %70 = getelementptr inbounds nuw i32, ptr %64, i64 %69
  %.not10.i.i = icmp eq i32 %67, 0
  br i1 %.not10.i.i, label %_ZN12mpfx_manager5resetER4mpfx.exit, label %.lr.ph.i.i

.lr.ph.i.i:                                       ; preds = %_ZN6id_gen7recycleEj.exit.i.i, %.lr.ph.i.i
  %indvars.iv.i.i = phi i64 [ %indvars.iv.next.i.i, %.lr.ph.i.i ], [ 0, %_ZN6id_gen7recycleEj.exit.i.i ]
  %71 = getelementptr inbounds nuw i32, ptr %70, i64 %indvars.iv.i.i
  store i32 0, ptr %71, align 4, !tbaa !22
  %indvars.iv.next.i.i = add nuw nsw i64 %indvars.iv.i.i, 1
  %72 = load i32, ptr %7, align 8, !tbaa !19
  %73 = zext i32 %72 to i64
  %74 = icmp samesign ult i64 %indvars.iv.next.i.i, %73
  br i1 %74, label %.lr.ph.i.i, label %_ZN12mpfx_manager5resetER4mpfx.exit, !llvm.loop !26

_ZN12mpfx_manager5resetER4mpfx.exit:              ; preds = %.lr.ph.i.i, %42, %_ZN6id_gen7recycleEj.exit.i.i
  store i32 0, ptr %1, align 4
  br label %75

75:                                               ; preds = %_ZN12mpfx_manager5resetER4mpfx.exit, %.loopexit
  ret void
}